target datalayout = "e-m:e-p270:32:32-p271:32:32-p272:64:64-i64:64-i128:128-f80:128-n8:16:32:64-S128"
target triple = "x86_64-pc-linux-gnu"

; Function Attrs: mustprogress nounwind uwtable
define internal void @_ZN2cv12cpu_baseline12_GLOBAL__N_116vlineSmooth3N121ItNS_12_GLOBAL__N_113ufixedpoint32EEEvPKPKT0_S7_iPT_i(ptr noundef %0, ptr noundef %1, i32 noundef %2, ptr noundef %3, i32 noundef %4) #7 {
  %6 = alloca ptr, align 8
  %7 = alloca ptr, align 8
  %8 = alloca i32, align 4
  %9 = alloca ptr, align 8
  %10 = alloca i32, align 4
  %11 = alloca i32, align 4
  store ptr %0, ptr %6, align 8, !tbaa !452
  store ptr %1, ptr %7, align 8, !tbaa !343
  store i32 %2, ptr %8, align 4, !tbaa !10
  store ptr %3, ptr %9, align 8, !tbaa !8
  store i32 %4, ptr %10, align 4, !tbaa !10
  call void @llvm.lifetime.start.p0(i64 4, ptr %11) #3
  store i32 0, ptr %11, align 4, !tbaa !10
  br label %12

12:                                               ; preds = %51, %5
  %13 = load i32, ptr %11, align 4, !tbaa !10
  %14 = load i32, ptr %10, align 4, !tbaa !10
  %15 = icmp slt i32 %13, %14
  br i1 %15, label %16, label %54

16:                                               ; preds = %12
  %17 = load ptr, ptr %6, align 8, !tbaa !452
  %18 = getelementptr inbounds ptr, ptr %17, i64 0
  %19 = load ptr, ptr %18, align 8, !tbaa !343
  %20 = load i32, ptr %11, align 4, !tbaa !10
  %21 = sext i32 %20 to i64
  %22 = getelementptr inbounds i32, ptr %19, i64 %21
  %23 = load i32, ptr %22, align 4, !tbaa !10
  %24 = zext i32 %23 to i64
  %25 = load ptr, ptr %6, align 8, !tbaa !452
  %26 = getelementptr inbounds ptr, ptr %25, i64 2
  %27 = load ptr, ptr %26, align 8, !tbaa !343
  %28 = load i32, ptr %11, align 4, !tbaa !10
  %29 = sext i32 %28 to i64
  %30 = getelementptr inbounds i32, ptr %27, i64 %29
  %31 = load i32, ptr %30, align 4, !tbaa !10
  %32 = zext i32 %31 to i64
  %33 = add i64 %24, %32
  %34 = load ptr, ptr %6, align 8, !tbaa !452
  %35 = getelementptr inbounds ptr, ptr %34, i64 1
  %36 = load ptr, ptr %35, align 8, !tbaa !343
  %37 = load i32, ptr %11, align 4, !tbaa !10
  %38 = sext i32 %37 to i64
  %39 = getelementptr inbounds i32, ptr %36, i64 %38
  %40 = load i32, ptr %39, align 4, !tbaa !10
  %41 = zext i32 %40 to i64
  %42 = shl i64 %41, 1
  %43 = add i64 %33, %42
  %44 = add i64 %43, 131072
  %45 = lshr i64 %44, 18
  %46 = trunc i64 %45 to i16
  %47 = load ptr, ptr %9, align 8, !tbaa !8
  %48 = load i32, ptr %11, align 4, !tbaa !10
  %49 = sext i32 %48 to i64
  %50 = getelementptr inbounds i16, ptr %47, i64 %49
  store i16 %46, ptr %50, align 2, !tbaa !236
  br label %51

51:                                               ; preds = %16
  %52 = load i32, ptr %11, align 4, !tbaa !10
  %53 = add nsw i32 %52, 1
  store i32 %53, ptr %11, align 4, !tbaa !10
  br label %12, !llvm.loop !456

54:                                               ; preds = %12
  call void @llvm.lifetime.end.p0(i64 4, ptr %11) #3
  ret void
}