; Function Attrs: mustprogress nofree norecurse nosync nounwind memory(read, argmem: readwrite, inaccessiblemem: none) uwtable
define internal void @_ZN2cv12cpu_baseline12_GLOBAL__N_116vlineSmooth3N121ItNS_12_GLOBAL__N_113ufixedpoint32EEEvPKPKT0_S7_iPT_i(ptr noundef readonly captures(none) %0, ptr readnone captures(none) %1, i32 %2, ptr noundef writeonly captures(none) %3, i32 noundef %4) #17 {
  %6 = icmp sgt i32 %4, 0
  br i1 %6, label %.lr.ph, label %._crit_edge

.lr.ph:                                           ; preds = %5
  %7 = load ptr, ptr %0, align 8, !tbaa !1818
  %8 = getelementptr inbounds nuw i8, ptr %0, i64 16
  %9 = load ptr, ptr %8, align 8, !tbaa !1818
  %10 = getelementptr inbounds nuw i8, ptr %0, i64 8
  %11 = load ptr, ptr %10, align 8, !tbaa !1818
  %wide.trip.count = zext nneg i32 %4 to i64
  br label %12

12:                                               ; preds = %.lr.ph, %12
  %indvars.iv = phi i64 [ 0, %.lr.ph ], [ %indvars.iv.next, %12 ]
  %13 = getelementptr inbounds nuw i32, ptr %7, i64 %indvars.iv
  %14 = load i32, ptr %13, align 4, !tbaa !85
  %15 = zext i32 %14 to i64
  %16 = getelementptr inbounds nuw i32, ptr %9, i64 %indvars.iv
  %17 = load i32, ptr %16, align 4, !tbaa !85
  %18 = zext i32 %17 to i64
  %19 = getelementptr inbounds nuw i32, ptr %11, i64 %indvars.iv
  %20 = load i32, ptr %19, align 4, !tbaa !85
  %21 = zext i32 %20 to i64
  %22 = shl nuw nsw i64 %21, 1
  %23 = add nuw nsw i64 %15, 131072
  %24 = add nuw nsw i64 %23, %18
  %25 = add nuw nsw i64 %24, %22
  %26 = lshr i64 %25, 18
  %27 = trunc i64 %26 to i16
  %28 = getelementptr inbounds nuw i16, ptr %3, i64 %indvars.iv
  store i16 %27, ptr %28, align 2, !tbaa !400
  %indvars.iv.next = add nuw nsw i64 %indvars.iv, 1
  %exitcond.not = icmp eq i64 %indvars.iv.next, %wide.trip.count
  br i1 %exitcond.not, label %._crit_edge, label %12, !llvm.loop !1824

._crit_edge:                                      ; preds = %12, %5
  ret void
}